(dp0
VCNZZDATA1275989314
p1
V1474340619-1564326672-%7C1564326672
p2
sVUM_distinctid
p3
V16c393ae9fc6ae-0351f4a8c0819a-3b654406-1fa400-16c393ae9fd978
p4
sVnzrE_2132_ulastactivity
p5
V01129mn%2FAg8xkN4i1jv%2Bcl1yS6ypVO7Ezy9iO0uf55lQNQwRt2aH
p6
sVnzrE_2132_lip
p7
V123.120.11.241%2C1564327949
p8
sVnzrE_2132_sid
p9
VDJdEeU
p10
sVnzrE_2132_checkfollow
p11
V1
p12
sVnzrE_2132_saltkey
p13
Vpq4phwxR
p14
sVnzrE_2132_sendmail
p15
g12
sVnzrE_2132_lastvisit
p16
V1564324705
p17
sVnzrE_2132_seccode
p18
V8716.7735faba7f85a8c8b2
p19
sVnzrE_2132_lastact
p20
V1564328327%09home.php%09spacecp
p21
sVnzrE_2132_lastcheckfeed
p22
V792457%7C1564328323
p23
sVnzrE_2132_auth
p24
Vcd17GWVwepyOOMVcdqiBukUopeb41QHBkgvbsYsFgXy%2FDazzBD5q7NnC8j14PTcunDZfCbBw5Qe9Mbt0bzxCT4Zb7LI
p25
sVnzrE_2132_checkpm
p26
g12
sV__cfduid
p27
Vdadf01ff6f7f6caf26d9a7c0c8ea042231564328256
p28
s.