(lp0
(dp1
Vdomain
p2
Vaibjx.org
p3
sVsecure
p4
I00
sVvalue
p5
V1564560546%09home.php%09spacecp
p6
sVexpiry
p7
F1564646946.565072
sVpath
p8
V/
p9
sVhttpOnly
p10
I00
sVname
p11
VnzrE_2132_lastact
p12
sa(dp13
Vdomain
p14
Vaibjx.org
p15
sVname
p16
VnzrE_2132_lip
p17
sVvalue
p18
V120.52.147.47%2C1564559885
p19
sVpath
p20
g9
sVhttpOnly
p21
I00
sVsecure
p22
I00
sa(dp23
Vdomain
p24
Vaibjx.org
p25
sVsecure
p26
I00
sVvalue
p27
V1
p28
sVexpiry
p29
F1564560572.853021
sVpath
p30
g9
sVhttpOnly
p31
I00
sVname
p32
VnzrE_2132_checkfollow
p33
sa(dp34
Vdomain
p35
Vaibjx.org
p36
sVsecure
p37
I00
sVvalue
p38
V792457%7C1564560542
p39
sVexpiry
p40
F1596096542.852954
sVpath
p41
g9
sVhttpOnly
p42
I00
sVname
p43
VnzrE_2132_lastcheckfeed
p44
sa(dp45
Vdomain
p46
Vaibjx.org
p47
sVsecure
p48
I00
sVvalue
p49
V1192004034-1564556407-%7C1564556407
p50
sVexpiry
p51
I1580285289
sVpath
p52
g9
sVhttpOnly
p53
I00
sVname
p54
VCNZZDATA1275989314
p55
sa(dp56
Vdomain
p57
Vaibjx.org
p58
sVname
p59
VnzrE_2132_auth
p60
sVvalue
p61
Ve92amQ6%2Brs6FPw5kvbvkSVDrS0ca3hZXuPkOy%2Bd0tgeU%2BaRg6Zg1O0iVBu69NVzCXBOuXTlrM9zIk4HBxEqRQAN7ss8
p62
sVpath
p63
g9
sVhttpOnly
p64
I01
sVsecure
p65
I00
sa(dp66
Vdomain
p67
Vaibjx.org
p68
sVsecure
p69
I00
sVvalue
p70
V16c47122b8e3b-0aee42901cbb85-1c3e6754-1aeaa0-16c47122b8f8fd
p71
sVexpiry
p72
I1580285268
sVpath
p73
g9
sVhttpOnly
p74
I00
sVname
p75
VUM_distinctid
p76
sa(dp77
Vdomain
p78
Vaibjx.org
p79
sVsecure
p80
I00
sVvalue
p81
VeLDpqQ
p82
sVexpiry
p83
F1564646945.129917
sVpath
p84
g9
sVhttpOnly
p85
I00
sVname
p86
VnzrE_2132_sid
p87
sa(dp88
Vdomain
p89
Vaibjx.org
p90
sVname
p91
VnzrE_2132_seccode
p92
sVvalue
p93
V5524.e4dcce7ac50b9ba4e8
p94
sVpath
p95
g9
sVhttpOnly
p96
I00
sVsecure
p97
I00
sa(dp98
Vdomain
p99
Vaibjx.org
p100
sVsecure
p101
I00
sVvalue
p102
Vd8130a26e1a4d335fb0b70abd40686ee61564560467
p103
sVexpiry
p104
F1596096468.079254
sVpath
p105
g9
sVhttpOnly
p106
I01
sVname
p107
V__cfduid
p108
sa(dp109
Vdomain
p110
Vaibjx.org
p111
sVsecure
p112
I00
sVvalue
p113
g28
sVexpiry
p114
F1564560576.56514
sVpath
p115
g9
sVhttpOnly
p116
I00
sVname
p117
VnzrE_2132_checkpm
p118
sa(dp119
Vdomain
p120
Vaibjx.org
p121
sVsecure
p122
I00
sVvalue
p123
V1564556924
p124
sVexpiry
p125
F1567152525.07948
sVpath
p126
g9
sVhttpOnly
p127
I00
sVname
p128
VnzrE_2132_lastvisit
p129
sa(dp130
Vdomain
p131
Vaibjx.org
p132
sVsecure
p133
I00
sVvalue
p134
Vce17IZR9nopZ4t6ujT37P1wZymiUCqoMnpDIhHM96oY2NX0nRiiw
p135
sVexpiry
p136
F1596096542.852578
sVpath
p137
g9
sVhttpOnly
p138
I00
sVname
p139
VnzrE_2132_ulastactivity
p140
sa(dp141
Vdomain
p142
Vaibjx.org
p143
sVsecure
p144
I00
sVvalue
p145
g28
sVexpiry
p146
F1564560825.776754
sVpath
p147
g9
sVhttpOnly
p148
I00
sVname
p149
VnzrE_2132_sendmail
p150
sa(dp151
Vdomain
p152
Vaibjx.org
p153
sVsecure
p154
I00
sVvalue
p155
VFhYrDtGY
p156
sVexpiry
p157
F1567152525.079396
sVpath
p158
g9
sVhttpOnly
p159
I01
sVname
p160
VnzrE_2132_saltkey
p161
sa.